target datalayout = "e-m:e-p270:32:32-p271:32:32-p272:64:64-i64:64-i128:128-f80:128-n8:16:32:64-S128"
target triple = "x86_64-pc-linux-gnu"

%struct.dictType = type { ptr, ptr, ptr, ptr, ptr, ptr, ptr, ptr, ptr, ptr, ptr, i8, ptr, ptr, ptr }
%struct.dict = type { ptr, [2 x ptr], [2 x i64], i64, i16, [2 x i8], i16, [0 x ptr] }

; Function Attrs: nounwind uwtable
define dso_local void @dictEmpty(ptr noundef %0, ptr noundef %1) #0 {
  %3 = alloca ptr, align 8
  %4 = alloca ptr, align 8
  store ptr %0, ptr %3, align 8, !tbaa !18
  store ptr %1, ptr %4, align 8, !tbaa !10
  %5 = load ptr, ptr %3, align 8, !tbaa !18
  %6 = getelementptr inbounds nuw %struct.dict, ptr %5, i32 0, i32 3
  %7 = load i64, ptr %6, align 8, !tbaa !11
  %8 = icmp ne i64 %7, -1
  br i1 %8, label %9, label %23

9:                                                ; preds = %2
  %10 = load ptr, ptr %3, align 8, !tbaa !18
  %11 = getelementptr inbounds nuw %struct.dict, ptr %10, i32 0, i32 0
  %12 = load ptr, ptr %11, align 8, !tbaa !13
  %13 = getelementptr inbounds nuw %struct.dictType, ptr %12, i32 0, i32 8
  %14 = load ptr, ptr %13, align 8, !tbaa !33
  %15 = icmp ne ptr %14, null
  br i1 %15, label %16, label %23

16:                                               ; preds = %9
  %17 = load ptr, ptr %3, align 8, !tbaa !18
  %18 = getelementptr inbounds nuw %struct.dict, ptr %17, i32 0, i32 0
  %19 = load ptr, ptr %18, align 8, !tbaa !13
  %20 = getelementptr inbounds nuw %struct.dictType, ptr %19, i32 0, i32 8
  %21 = load ptr, ptr %20, align 8, !tbaa !33
  %22 = load ptr, ptr %3, align 8, !tbaa !18
  call void %21(ptr noundef %22)
  br label %23

23:                                               ; preds = %16, %9, %2
  %24 = load ptr, ptr %3, align 8, !tbaa !18
  %25 = load ptr, ptr %4, align 8, !tbaa !10
  %26 = call i32 @_dictClear(ptr noundef %24, i32 noundef 0, ptr noundef %25)
  %27 = load ptr, ptr %3, align 8, !tbaa !18
  %28 = load ptr, ptr %4, align 8, !tbaa !10
  %29 = call i32 @_dictClear(ptr noundef %27, i32 noundef 1, ptr noundef %28)
  %30 = load ptr, ptr %3, align 8, !tbaa !18
  %31 = getelementptr inbounds nuw %struct.dict, ptr %30, i32 0, i32 3
  store i64 -1, ptr %31, align 8, !tbaa !11
  %32 = load ptr, ptr %3, align 8, !tbaa !18
  %33 = getelementptr inbounds nuw %struct.dict, ptr %32, i32 0, i32 4
  %34 = load i16, ptr %33, align 8
  %35 = and i16 %34, -32768
  %36 = or i16 %35, 0
  store i16 %36, ptr %33, align 8
  %37 = load ptr, ptr %3, align 8, !tbaa !18
  %38 = getelementptr inbounds nuw %struct.dict, ptr %37, i32 0, i32 6
  store i16 0, ptr %38, align 4, !tbaa !20
  ret void
}