; Function Attrs: nounwind uwtable
define dso_local void @dictEmpty(ptr noundef %0, ptr noundef captures(address_is_null) %1) local_unnamed_addr #3 {
  %3 = getelementptr inbounds nuw i8, ptr %0, i64 40
  %4 = load i64, ptr %3, align 8, !tbaa !14
  %.not = icmp eq i64 %4, -1
  br i1 %.not, label %10, label %5

5:                                                ; preds = %2
  %6 = load ptr, ptr %0, align 8, !tbaa !16
  %7 = getelementptr inbounds nuw i8, ptr %6, i64 64
  %8 = load ptr, ptr %7, align 8, !tbaa !28
  %.not11 = icmp eq ptr %8, null
  br i1 %.not11, label %10, label %9

9:                                                ; preds = %5
  tail call void %8(ptr noundef nonnull %0) #25
  br label %10

10:                                               ; preds = %9, %5, %2
  %11 = tail call i32 @_dictClear(ptr noundef nonnull %0, i32 noundef 0, ptr noundef %1)
  %12 = tail call i32 @_dictClear(ptr noundef nonnull %0, i32 noundef 1, ptr noundef %1)
  store i64 -1, ptr %3, align 8, !tbaa !14
  %13 = getelementptr inbounds nuw i8, ptr %0, i64 48
  %14 = load i16, ptr %13, align 8
  %15 = and i16 %14, -32768
  store i16 %15, ptr %13, align 8
  %16 = getelementptr inbounds nuw i8, ptr %0, i64 52
  store i16 0, ptr %16, align 4, !tbaa !18
  ret void
}